; Function Attrs: nounwind sspstrong uwtable
define internal void @ivshmem_doorbell_init(ptr noundef %obj) #0 {
entry:
  %call.i = tail call ptr @object_dynamic_cast_assert(ptr noundef %obj, ptr noundef nonnull @.str.49, ptr noundef nonnull @.str.7, i32 noundef 71, ptr noundef nonnull @__func__.IVSHMEM_DOORBELL) #11
  %features = getelementptr inbounds nuw i8, ptr %call.i, i64 2608
  %0 = load i32, ptr %features, align 16
  %or = or i32 %0, 2
  store i32 %or, ptr %features, align 16
  ret void
}